target datalayout = "e-m:e-p270:32:32-p271:32:32-p272:64:64-i64:64-i128:128-f80:128-n8:16:32:64-S128"
target triple = "x86_64-pc-linux-gnu"

%struct._lv_global_t = type { i8, i8, %struct.lv_ll_t, ptr, ptr, %struct.lv_ll_t, i8, i32, i32, ptr, %struct.lv_ll_t, ptr, %struct.lv_ll_t, ptr, ptr, i32, ptr, i8, i32, i32, ptr, i32, %struct.lv_timer_state_t, %struct.lv_anim_state_t, %struct.lv_tick_state_t, %struct._lv_draw_buf_handlers_t, %struct._lv_draw_buf_handlers_t, %struct._lv_draw_buf_handlers_t, %struct.lv_ll_t, ptr, ptr, %struct.lv_draw_global_info_t, [4 x %struct.lv_draw_sw_mask_radius_circle_dsc_t], ptr, ptr, ptr, %struct.lv_tlsf_state_t, %struct.lv_ll_t, ptr, ptr, %struct.lv_style_t, i64, ptr, i32, ptr }
%struct.lv_timer_state_t = type { %struct.lv_ll_t, i8, i8, i8, i8, i32, i8, i32, i32, i32, i32, ptr, ptr }
%struct.lv_anim_state_t = type { i8, i8, ptr, %struct.lv_ll_t }
%struct.lv_tick_state_t = type { i32, i8, ptr, ptr }
%struct._lv_draw_buf_handlers_t = type { ptr, ptr, ptr, ptr, ptr, ptr }
%struct.lv_draw_global_info_t = type { ptr, i32, i32, i32, i32, i8 }
%struct.lv_draw_sw_mask_radius_circle_dsc_t = type { ptr, ptr, ptr, ptr, i32, i32, i32 }
%struct.lv_tlsf_state_t = type { ptr, i64, i64, %struct.lv_ll_t }
%struct.lv_ll_t = type { i32, ptr, ptr }
%struct.lv_style_t = type { ptr, i32, i8 }
%struct._my_theme_t = type { %struct._lv_theme_t, %struct.my_theme_styles_t, i8 }
%struct._lv_theme_t = type { ptr, ptr, ptr, ptr, %struct.lv_color_t, %struct.lv_color_t, ptr, ptr, ptr, i32 }
%struct.lv_color_t = type { i8, i8, i8 }
%struct.my_theme_styles_t = type { %struct.lv_style_t, %struct.lv_style_t, %struct.lv_style_t, %struct.lv_style_t, %struct.lv_style_t, %struct.lv_style_t, %struct.lv_style_t, %struct.lv_style_t, %struct.lv_style_t, %struct.lv_style_t }

@lv_global = external global %struct._lv_global_t, align 8

; Function Attrs: nounwind uwtable
define void @lv_theme_simple_deinit() #0 {
  %1 = alloca ptr, align 8
  %2 = alloca ptr, align 8
  %3 = alloca i32, align 4
  call void @llvm.lifetime.start.p0(i64 8, ptr %1) #5
  %4 = load ptr, ptr getelementptr inbounds nuw (%struct._lv_global_t, ptr @lv_global, i32 0, i32 33), align 8, !tbaa !3
  store ptr %4, ptr %1, align 8, !tbaa !3
  %5 = load ptr, ptr %1, align 8, !tbaa !3
  %6 = icmp ne ptr %5, null
  br i1 %6, label %7, label %30

7:                                                ; preds = %0
  %8 = load ptr, ptr %1, align 8, !tbaa !3
  %9 = getelementptr inbounds nuw %struct._my_theme_t, ptr %8, i32 0, i32 2
  %10 = load i8, ptr %9, align 8, !tbaa !8, !range !19, !noundef !20
  %11 = trunc i8 %10 to i1
  br i1 %11, label %12, label %28

12:                                               ; preds = %7
  call void @llvm.lifetime.start.p0(i64 8, ptr %2) #5
  %13 = load ptr, ptr %1, align 8, !tbaa !3
  %14 = getelementptr inbounds nuw %struct._my_theme_t, ptr %13, i32 0, i32 1
  store ptr %14, ptr %2, align 8, !tbaa !21
  call void @llvm.lifetime.start.p0(i64 4, ptr %3) #5
  store i32 0, ptr %3, align 4, !tbaa !22
  br label %15

15:                                               ; preds = %24, %12
  %16 = load i32, ptr %3, align 4, !tbaa !22
  %17 = zext i32 %16 to i64
  %18 = icmp ult i64 %17, 10
  br i1 %18, label %19, label %27

19:                                               ; preds = %15
  %20 = load ptr, ptr %2, align 8, !tbaa !21
  %21 = load i32, ptr %3, align 4, !tbaa !22
  %22 = zext i32 %21 to i64
  %23 = getelementptr inbounds nuw %struct.lv_style_t, ptr %20, i64 %22
  call void @lv_style_reset(ptr noundef %23)
  br label %24

24:                                               ; preds = %19
  %25 = load i32, ptr %3, align 4, !tbaa !22
  %26 = add i32 %25, 1
  store i32 %26, ptr %3, align 4, !tbaa !22
  br label %15, !llvm.loop !23

27:                                               ; preds = %15
  call void @llvm.lifetime.end.p0(i64 4, ptr %3) #5
  call void @llvm.lifetime.end.p0(i64 8, ptr %2) #5
  br label %28

28:                                               ; preds = %27, %7
  %29 = load ptr, ptr getelementptr inbounds nuw (%struct._lv_global_t, ptr @lv_global, i32 0, i32 33), align 8, !tbaa !3
  call void @lv_free(ptr noundef %29)
  store ptr null, ptr getelementptr inbounds nuw (%struct._lv_global_t, ptr @lv_global, i32 0, i32 33), align 8, !tbaa !3
  br label %30

30:                                               ; preds = %28, %0
  call void @llvm.lifetime.end.p0(i64 8, ptr %1) #5
  ret void
}